target datalayout = "e-m:e-p270:32:32-p271:32:32-p272:64:64-i64:64-i128:128-f80:128-n8:16:32:64-S128"
target triple = "x86_64-pc-linux-gnu"

%struct._XSettingsList = type { ptr, ptr }
%struct._XSettingsSetting = type { ptr, i32, %union.anon.1, i64 }
%union.anon.1 = type { ptr }

; Function Attrs: nounwind uwtable
define hidden void @xsettings_setting_free(ptr noundef %0) #0 {
  %2 = alloca ptr, align 8
  store ptr %0, ptr %2, align 8
  %3 = load ptr, ptr %2, align 8
  %4 = getelementptr inbounds nuw %struct._XSettingsSetting, ptr %3, i32 0, i32 1
  %5 = load i32, ptr %4, align 8
  %6 = icmp eq i32 %5, 1
  br i1 %6, label %7, label %11

7:                                                ; preds = %1
  %8 = load ptr, ptr %2, align 8
  %9 = getelementptr inbounds nuw %struct._XSettingsSetting, ptr %8, i32 0, i32 2
  %10 = load ptr, ptr %9, align 8
  call void @free(ptr noundef %10) #6
  br label %11

11:                                               ; preds = %7, %1
  %12 = load ptr, ptr %2, align 8
  %13 = getelementptr inbounds nuw %struct._XSettingsSetting, ptr %12, i32 0, i32 0
  %14 = load ptr, ptr %13, align 8
  %15 = icmp ne ptr %14, null
  br i1 %15, label %16, label %20

16:                                               ; preds = %11
  %17 = load ptr, ptr %2, align 8
  %18 = getelementptr inbounds nuw %struct._XSettingsSetting, ptr %17, i32 0, i32 0
  %19 = load ptr, ptr %18, align 8
  call void @free(ptr noundef %19) #6
  br label %20

20:                                               ; preds = %16, %11
  %21 = load ptr, ptr %2, align 8
  call void @free(ptr noundef %21) #6
  ret void
}

; Function Attrs: nounwind uwtable
define hidden void @xsettings_list_free(ptr noundef %0) #0 {
  %2 = alloca ptr, align 8
  %3 = alloca ptr, align 8
  store ptr %0, ptr %2, align 8
  br label %4

4:                                                ; preds = %7, %1
  %5 = load ptr, ptr %2, align 8
  %6 = icmp ne ptr %5, null
  br i1 %6, label %7, label %16

7:                                                ; preds = %4
  call void @llvm.lifetime.start.p0(i64 8, ptr %3) #6
  %8 = load ptr, ptr %2, align 8
  %9 = getelementptr inbounds nuw %struct._XSettingsList, ptr %8, i32 0, i32 1
  %10 = load ptr, ptr %9, align 8
  store ptr %10, ptr %3, align 8
  %11 = load ptr, ptr %2, align 8
  %12 = getelementptr inbounds nuw %struct._XSettingsList, ptr %11, i32 0, i32 0
  %13 = load ptr, ptr %12, align 8
  call void @xsettings_setting_free(ptr noundef %13)
  %14 = load ptr, ptr %2, align 8
  call void @free(ptr noundef %14) #6
  %15 = load ptr, ptr %3, align 8
  store ptr %15, ptr %2, align 8
  call void @llvm.lifetime.end.p0(i64 8, ptr %3) #6
  br label %4, !llvm.loop !3

16:                                               ; preds = %4
  ret void
}