; Function Attrs: nounwind uwtable
define hidden void @xsettings_list_free(ptr noundef captures(address_is_null) %0) local_unnamed_addr #0 {
  %.not5 = icmp eq ptr %0, null
  br i1 %.not5, label %._crit_edge, label %.lr.ph

.lr.ph:                                           ; preds = %1, %xsettings_setting_free.exit
  %.06 = phi ptr [ %3, %xsettings_setting_free.exit ], [ %0, %1 ]
  %2 = getelementptr inbounds nuw i8, ptr %.06, i64 8
  %3 = load ptr, ptr %2, align 8
  %4 = load ptr, ptr %.06, align 8
  %5 = getelementptr inbounds nuw i8, ptr %4, i64 8
  %6 = load i32, ptr %5, align 8
  %7 = icmp eq i32 %6, 1
  br i1 %7, label %8, label %11

8:                                                ; preds = %.lr.ph
  %9 = getelementptr inbounds nuw i8, ptr %4, i64 16
  %10 = load ptr, ptr %9, align 8
  tail call void @free(ptr noundef %10) #14
  br label %11

11:                                               ; preds = %8, %.lr.ph
  %12 = load ptr, ptr %4, align 8
  %.not.i = icmp eq ptr %12, null
  br i1 %.not.i, label %xsettings_setting_free.exit, label %13

13:                                               ; preds = %11
  tail call void @free(ptr noundef nonnull %12) #14
  br label %xsettings_setting_free.exit

xsettings_setting_free.exit:                      ; preds = %11, %13
  tail call void @free(ptr noundef nonnull %4) #14
  tail call void @free(ptr noundef nonnull %.06) #14
  %.not = icmp eq ptr %3, null
  br i1 %.not, label %._crit_edge, label %.lr.ph, !llvm.loop !3

._crit_edge:                                      ; preds = %xsettings_setting_free.exit, %1
  ret void
}